; Function Attrs: mustprogress nounwind uwtable
define void @_ZN7mitsuba10PropertiesD2Ev(ptr nocapture noundef nonnull align 8 dereferenceable(8) %0) unnamed_addr #6 align 2 {
  %2 = load ptr, ptr %0, align 8
  store ptr null, ptr %0, align 8
  %.not.i.i = icmp eq ptr %2, null
  br i1 %.not.i.i, label %_ZNSt3__110unique_ptrIN7mitsuba10Properties17PropertiesPrivateENS_14default_deleteIS3_EEED2B8ne190000Ev.exit, label %_ZNKSt3__114default_deleteIN7mitsuba10Properties17PropertiesPrivateEEclB8ne190000EPS3_.exit.i.i

_ZNKSt3__114default_deleteIN7mitsuba10Properties17PropertiesPrivateEEclB8ne190000EPS3_.exit.i.i: ; preds = %1
  %3 = getelementptr inbounds i8, ptr %2, i64 48
  tail call void @_ZNSt3__112basic_stringIcNS_11char_traitsIcEENS_9allocatorIcEEED1Ev(ptr noundef nonnull align 8 dereferenceable(24) %3) #26
  %4 = getelementptr inbounds i8, ptr %2, i64 24
  tail call void @_ZNSt3__112basic_stringIcNS_11char_traitsIcEENS_9allocatorIcEEED1Ev(ptr noundef nonnull align 8 dereferenceable(24) %4) #26
  %5 = getelementptr inbounds i8, ptr %2, i64 8
  %6 = load ptr, ptr %5, align 8
  tail call void @_ZNSt3__16__treeINS_12__value_typeINS_12basic_stringIcNS_11char_traitsIcEENS_9allocatorIcEEEEN7mitsuba5EntryEEENS_19__map_value_compareIS7_SA_NS8_7SortKeyELb1EEENS5_ISA_EEE7destroyEPNS_11__tree_nodeISA_PvEE(ptr noundef nonnull align 8 dereferenceable(24) %2, ptr noundef %6) #26
  tail call void @_ZdlPv(ptr noundef nonnull %2) #28
  br label %_ZNSt3__110unique_ptrIN7mitsuba10Properties17PropertiesPrivateENS_14default_deleteIS3_EEED2B8ne190000Ev.exit

_ZNSt3__110unique_ptrIN7mitsuba10Properties17PropertiesPrivateENS_14default_deleteIS3_EEED2B8ne190000Ev.exit: ; preds = %1, %_ZNKSt3__114default_deleteIN7mitsuba10Properties17PropertiesPrivateEEclB8ne190000EPS3_.exit.i.i
  ret void
}